; ModuleID = '43/1320.c'
source_filename = "43/1320.c"
target datalayout = "e-m:e-p270:32:32-p271:32:32-p272:64:64-i64:64-f80:128-n8:16:32:64-S128"
target triple = "x86_64-pc-linux-gnu"

@.str = private unnamed_addr constant [3 x i8] c"%d\00", align 1
@.str.1 = private unnamed_addr constant [8 x i8] c"\0A%d %d\0A\00", align 1

; Function Attrs: noinline nounwind uwtable
define dso_local i32 @main() #0 {
  %1 = alloca i32, align 4
  %2 = alloca i32, align 4
  %3 = alloca i32, align 4
  %4 = alloca i32, align 4
  %5 = alloca i32, align 4
  %6 = alloca i32, align 4
  %7 = alloca i32, align 4
  %8 = alloca i32, align 4
  %9 = alloca i32, align 4
  store i32 0, i32* %1, align 4
  %10 = call i32 (i8*, ...) @__isoc99_scanf(i8* getelementptr inbounds ([3 x i8], [3 x i8]* @.str, i64 0, i64 0), i32* %2)
  %11 = load i32, i32* %2, align 4
  %12 = sdiv i32 %11, 2
  store i32 %12, i32* %3, align 4
  store i32 3, i32* %4, align 4
  br label %13

13:                                               ; preds = %73, %0
  %14 = load i32, i32* %4, align 4
  %15 = load i32, i32* %3, align 4
  %16 = icmp sle i32 %14, %15
  br i1 %16, label %17, label %76

17:                                               ; preds = %13
  %18 = load i32, i32* %4, align 4
  %19 = sitofp i32 %18 to double
  %20 = call double @sqrt(double %19) #3
  %21 = fptosi double %20 to i32
  store i32 %21, i32* %6, align 4
  store i32 3, i32* %8, align 4
  br label %22

22:                                               ; preds = %33, %17
  %23 = load i32, i32* %8, align 4
  %24 = load i32, i32* %6, align 4
  %25 = icmp sle i32 %23, %24
  br i1 %25, label %26, label %36

26:                                               ; preds = %22
  %27 = load i32, i32* %4, align 4
  %28 = load i32, i32* %8, align 4
  %29 = srem i32 %27, %28
  %30 = icmp eq i32 %29, 0
  br i1 %30, label %31, label %32

31:                                               ; preds = %26
  br label %36

32:                                               ; preds = %26
  br label %33

33:                                               ; preds = %32
  %34 = load i32, i32* %8, align 4
  %35 = add nsw i32 %34, 1
  store i32 %35, i32* %8, align 4
  br label %22

36:                                               ; preds = %31, %22
  %37 = load i32, i32* %8, align 4
  %38 = load i32, i32* %6, align 4
  %39 = add nsw i32 %38, 1
  %40 = icmp sge i32 %37, %39
  br i1 %40, label %41, label %73

41:                                               ; preds = %36
  %42 = load i32, i32* %2, align 4
  %43 = load i32, i32* %4, align 4
  %44 = sub nsw i32 %42, %43
  store i32 %44, i32* %5, align 4
  %45 = load i32, i32* %5, align 4
  %46 = sitofp i32 %45 to double
  %47 = call double @sqrt(double %46) #3
  %48 = fptosi double %47 to i32
  store i32 %48, i32* %7, align 4
  store i32 3, i32* %9, align 4
  br label %49

49:                                               ; preds = %60, %41
  %50 = load i32, i32* %9, align 4
  %51 = load i32, i32* %7, align 4
  %52 = icmp sle i32 %50, %51
  br i1 %52, label %53, label %63

53:                                               ; preds = %49
  %54 = load i32, i32* %5, align 4
  %55 = load i32, i32* %9, align 4
  %56 = srem i32 %54, %55
  %57 = icmp eq i32 %56, 0
  br i1 %57, label %58, label %59

58:                                               ; preds = %53
  br label %63

59:                                               ; preds = %53
  br label %60

60:                                               ; preds = %59
  %61 = load i32, i32* %9, align 4
  %62 = add nsw i32 %61, 1
  store i32 %62, i32* %9, align 4
  br label %49

63:                                               ; preds = %58, %49
  %64 = load i32, i32* %9, align 4
  %65 = load i32, i32* %7, align 4
  %66 = add nsw i32 %65, 1
  %67 = icmp sge i32 %64, %66
  br i1 %67, label %68, label %72

68:                                               ; preds = %63
  %69 = load i32, i32* %4, align 4
  %70 = load i32, i32* %5, align 4
  %71 = call i32 (i8*, ...) @printf(i8* getelementptr inbounds ([8 x i8], [8 x i8]* @.str.1, i64 0, i64 0), i32 %69, i32 %70)
  br label %72

72:                                               ; preds = %68, %63
  br label %73

73:                                               ; preds = %72, %36
  %74 = load i32, i32* %4, align 4
  %75 = add nsw i32 %74, 2
  store i32 %75, i32* %4, align 4
  br label %13

76:                                               ; preds = %13
  ret i32 0
}

declare dso_local i32 @__isoc99_scanf(i8*, ...) #1

; Function Attrs: nounwind
declare dso_local double @sqrt(double) #2

declare dso_local i32 @printf(i8*, ...) #1


!llvm.module.flags = !{!0}
!llvm.ident = !{!1}

!0 = !{i32 1, !"wchar_size", i32 4}
!1 = !{!"clang version 10.0.0-4ubuntu1 "}
